; ModuleID = '31/1988.c'
source_filename = "31/1988.c"
target datalayout = "e-m:e-p270:32:32-p271:32:32-p272:64:64-i64:64-f80:128-n8:16:32:64-S128"
target triple = "x86_64-pc-linux-gnu"

%struct.student = type { [100 x i8], %struct.student* }

@student = common dso_local global [10000 x %struct.student] zeroinitializer, align 16
@.str = private unnamed_addr constant [4 x i8] c"%s\0A\00", align 1

; Function Attrs: noinline nounwind uwtable
define dso_local i32 @main() #0 {
  %1 = alloca i32, align 4
  %2 = alloca i32, align 4
  %3 = alloca i32, align 4
  %4 = alloca [10000 x [100 x i8]], align 16
  store i32 0, i32* %1, align 4
  store i32 0, i32* %2, align 4
  %5 = getelementptr inbounds [10000 x [100 x i8]], [10000 x [100 x i8]]* %4, i64 0, i64 0
  %6 = getelementptr inbounds [100 x i8], [100 x i8]* %5, i64 0, i64 0
  %7 = call i32 (i8*, ...) bitcast (i32 (...)* @gets to i32 (i8*, ...)*)(i8* %6)
  br label %8

8:                                                ; preds = %16, %0
  %9 = load i32, i32* %2, align 4
  %10 = sext i32 %9 to i64
  %11 = getelementptr inbounds [10000 x [100 x i8]], [10000 x [100 x i8]]* %4, i64 0, i64 %10
  %12 = getelementptr inbounds [100 x i8], [100 x i8]* %11, i64 0, i64 0
  %13 = load i8, i8* %12, align 4
  %14 = sext i8 %13 to i32
  %15 = icmp ne i32 %14, 101
  br i1 %15, label %16, label %34

16:                                               ; preds = %8
  %17 = load i32, i32* %2, align 4
  %18 = sext i32 %17 to i64
  %19 = getelementptr inbounds [10000 x %struct.student], [10000 x %struct.student]* @student, i64 0, i64 %18
  %20 = getelementptr inbounds %struct.student, %struct.student* %19, i32 0, i32 0
  %21 = getelementptr inbounds [100 x i8], [100 x i8]* %20, i64 0, i64 0
  %22 = load i32, i32* %2, align 4
  %23 = sext i32 %22 to i64
  %24 = getelementptr inbounds [10000 x [100 x i8]], [10000 x [100 x i8]]* %4, i64 0, i64 %23
  %25 = getelementptr inbounds [100 x i8], [100 x i8]* %24, i64 0, i64 0
  %26 = call i8* @strcpy(i8* %21, i8* %25) #3
  %27 = load i32, i32* %2, align 4
  %28 = add nsw i32 %27, 1
  store i32 %28, i32* %2, align 4
  %29 = load i32, i32* %2, align 4
  %30 = sext i32 %29 to i64
  %31 = getelementptr inbounds [10000 x [100 x i8]], [10000 x [100 x i8]]* %4, i64 0, i64 %30
  %32 = getelementptr inbounds [100 x i8], [100 x i8]* %31, i64 0, i64 0
  %33 = call i32 (i8*, ...) bitcast (i32 (...)* @gets to i32 (i8*, ...)*)(i8* %32)
  br label %8

34:                                               ; preds = %8
  store %struct.student* null, %struct.student** getelementptr inbounds ([10000 x %struct.student], [10000 x %struct.student]* @student, i64 0, i64 0, i32 1), align 8
  store i32 0, i32* %3, align 4
  br label %35

35:                                               ; preds = %49, %34
  %36 = load i32, i32* %3, align 4
  %37 = load i32, i32* %2, align 4
  %38 = sub nsw i32 %37, 1
  %39 = icmp sle i32 %36, %38
  br i1 %39, label %40, label %52

40:                                               ; preds = %35
  %41 = load i32, i32* %3, align 4
  %42 = sext i32 %41 to i64
  %43 = getelementptr inbounds [10000 x %struct.student], [10000 x %struct.student]* @student, i64 0, i64 %42
  %44 = load i32, i32* %3, align 4
  %45 = add nsw i32 %44, 1
  %46 = sext i32 %45 to i64
  %47 = getelementptr inbounds [10000 x %struct.student], [10000 x %struct.student]* @student, i64 0, i64 %46
  %48 = getelementptr inbounds %struct.student, %struct.student* %47, i32 0, i32 1
  store %struct.student* %43, %struct.student** %48, align 8
  br label %49

49:                                               ; preds = %40
  %50 = load i32, i32* %3, align 4
  %51 = add nsw i32 %50, 1
  store i32 %51, i32* %3, align 4
  br label %35

52:                                               ; preds = %35
  %53 = load i32, i32* %2, align 4
  %54 = sub nsw i32 %53, 1
  %55 = sext i32 %54 to i64
  %56 = getelementptr inbounds [10000 x %struct.student], [10000 x %struct.student]* @student, i64 0, i64 %55
  call void @print(%struct.student* %56)
  ret i32 0
}

declare dso_local i32 @gets(...) #1

; Function Attrs: nounwind
declare dso_local i8* @strcpy(i8*, i8*) #2

; Function Attrs: noinline nounwind uwtable
define dso_local void @print(%struct.student* %0) #0 {
  %2 = alloca %struct.student*, align 8
  store %struct.student* %0, %struct.student** %2, align 8
  %3 = load %struct.student*, %struct.student** %2, align 8
  %4 = getelementptr inbounds %struct.student, %struct.student* %3, i32 0, i32 0
  %5 = getelementptr inbounds [100 x i8], [100 x i8]* %4, i64 0, i64 0
  %6 = call i32 (i8*, ...) @printf(i8* getelementptr inbounds ([4 x i8], [4 x i8]* @.str, i64 0, i64 0), i8* %5)
  %7 = load %struct.student*, %struct.student** %2, align 8
  %8 = getelementptr inbounds %struct.student, %struct.student* %7, i32 0, i32 1
  %9 = load %struct.student*, %struct.student** %8, align 8
  %10 = icmp ne %struct.student* %9, null
  br i1 %10, label %11, label %15

11:                                               ; preds = %1
  %12 = load %struct.student*, %struct.student** %2, align 8
  %13 = getelementptr inbounds %struct.student, %struct.student* %12, i32 0, i32 1
  %14 = load %struct.student*, %struct.student** %13, align 8
  call void @print(%struct.student* %14)
  br label %15

15:                                               ; preds = %11, %1
  ret void
}

declare dso_local i32 @printf(i8*, ...) #1


!llvm.module.flags = !{!0}
!llvm.ident = !{!1}

!0 = !{i32 1, !"wchar_size", i32 4}
!1 = !{!"clang version 10.0.0-4ubuntu1 "}
